target datalayout = "e-m:e-p270:32:32-p271:32:32-p272:64:64-i64:64-i128:128-f80:128-n8:16:32:64-S128"
target triple = "x86_64-pc-linux-gnu"

%struct.strvec = type { ptr, i64, i64 }
%struct.strbuf = type { i64, i64, ptr }
%struct.string_list = type { ptr, i64, i64, i8, ptr }
%struct.oidset = type { %struct.kh_oid_set }
%struct.kh_oid_set = type { i32, i32, i32, i32, ptr, ptr, ptr }
%struct.object_id = type { [32 x i8], i32 }
%struct.rev_info = type { ptr, %struct.object_array, ptr, %struct.object_array, %struct.rev_cmdline_info, %struct.list_objects_filter_options, %struct.ref_exclusions, ptr, ptr, ptr, %struct.pathspec, i32, i32, i32, i32, i64, i32, i32, %struct.date_mode, i32, i32, i32, i32, ptr, i32, i32, ptr, ptr, i32, ptr, ptr, %struct.ident_split, ptr, i32, ptr, ptr, ptr, i32, i32, i32, ptr, %struct.grep_opt, ptr, i32, i32, i64, i64, i64, i32, i32, ptr, ptr, ptr, %struct.diff_options, %struct.diff_options, ptr, %struct.decoration, %struct.decoration, %struct.decoration, %struct.display_notes_opt, ptr, ptr, ptr, ptr, ptr, i32, ptr, i32, i32, i32, %struct.decoration, ptr, ptr, ptr, ptr, ptr, ptr, ptr, i32, ptr, i32, ptr, %struct.oidset }
%struct.object_array = type { i32, i32, ptr }
%struct.rev_cmdline_info = type { i32, i32, ptr }
%struct.list_objects_filter_options = type { %struct.strbuf, i32, i8, ptr, i64, i64, i32, i64, i64, ptr }
%struct.ref_exclusions = type { %struct.string_list, %struct.strvec, i8 }
%struct.pathspec = type { i32, i8, i32, i32, ptr }
%struct.date_mode = type { i32, i32, ptr }
%struct.ident_split = type { ptr, ptr, ptr, ptr, ptr, ptr, ptr, ptr }
%struct.grep_opt = type { ptr, ptr, ptr, ptr, ptr, ptr, i32, i32, i32, i32, i32, i32, i32, i32, i32, i32, i32, i32, i32, i32, i32, i32, i32, i32, i32, i32, i32, i32, i32, i32, i32, i32, [9 x [75 x i8]], i32, i32, i32, i32, i32, i32, i32, ptr, ptr, ptr }
%struct.diff_options = type { ptr, ptr, i32, i32, ptr, i32, ptr, i64, i64, ptr, ptr, ptr, ptr, %struct.diff_flags, i32, i32, i32, i32, i32, i32, i32, i32, i32, i32, i32, i32, i32, i32, i32, i32, i32, i32, i32, i32, i32, i32, ptr, i32, ptr, i32, i32, ptr, i64, i64, i32, i32, i32, i32, ptr, i32, i32, ptr, i32, i32, ptr, ptr, i32, [3 x i8], %struct.pathspec, ptr, ptr, ptr, ptr, ptr, ptr, ptr, ptr, i32, ptr, i32, i32, ptr, ptr, i32 }
%struct.diff_flags = type { i32, i32, i32, i32, i32, i32, i32, i32, i32, i32, i32, i32, i32, i32, i32, i32, i32, i32, i32, i32, i32, i32, i32, i32, i32, i32, i32, i32, i32, i32, i32, i32, i32, i32, i32 }
%struct.display_notes_opt = type { i32, %struct.string_list }
%struct.decoration = type { ptr, i32, i32, ptr }

@.str.65 = private unnamed_addr constant [1 x i8] zeroinitializer, align 1
@.str.66 = private unnamed_addr constant [29 x i8] c"symbolic ref is dangling: %s\00", align 1

; Function Attrs: nounwind uwtable
define internal i32 @add_ref_to_pending(ptr noundef %0, ptr noundef %1, ptr noundef %2, i32 noundef %3, ptr noundef %4) #0 {
  %6 = alloca i32, align 4
  %7 = alloca ptr, align 8
  %8 = alloca ptr, align 8
  %9 = alloca ptr, align 8
  %10 = alloca i32, align 4
  %11 = alloca ptr, align 8
  %12 = alloca ptr, align 8
  %13 = alloca %struct.object_id, align 4
  %14 = alloca ptr, align 8
  %15 = alloca i32, align 4
  store ptr %0, ptr %7, align 8, !tbaa !9
  store ptr %1, ptr %8, align 8, !tbaa !9
  store ptr %2, ptr %9, align 8, !tbaa !205
  store i32 %3, ptr %10, align 4, !tbaa !11
  store ptr %4, ptr %11, align 8, !tbaa !137
  call void @llvm.lifetime.start.p0(i64 8, ptr %12) #11
  %16 = load ptr, ptr %11, align 8, !tbaa !137
  store ptr %16, ptr %12, align 8, !tbaa !211
  call void @llvm.lifetime.start.p0(i64 36, ptr %13) #11
  call void @llvm.lifetime.start.p0(i64 8, ptr %14) #11
  %17 = load i32, ptr %10, align 4, !tbaa !11
  %18 = and i32 %17, 1
  %19 = icmp ne i32 %18, 0
  br i1 %19, label %20, label %26

20:                                               ; preds = %5
  %21 = load i32, ptr %10, align 4, !tbaa !11
  %22 = and i32 %21, 4
  %23 = icmp ne i32 %22, 0
  br i1 %23, label %24, label %26

24:                                               ; preds = %20
  %25 = load ptr, ptr %7, align 8, !tbaa !9
  call void (ptr, ...) @warning(ptr noundef @.str.66, ptr noundef %25)
  store i32 0, ptr %6, align 4
  store i32 1, ptr %15, align 4
  br label %64

26:                                               ; preds = %20, %5
  %27 = load ptr, ptr %12, align 8, !tbaa !211
  %28 = getelementptr inbounds nuw %struct.rev_info, ptr %27, i32 0, i32 2
  %29 = load ptr, ptr %28, align 8, !tbaa !214
  %30 = load ptr, ptr %9, align 8, !tbaa !205
  %31 = call i32 @peel_iterated_oid(ptr noundef %29, ptr noundef %30, ptr noundef %13)
  %32 = icmp ne i32 %31, 0
  br i1 %32, label %34, label %33

33:                                               ; preds = %26
  store ptr %13, ptr %9, align 8, !tbaa !205
  br label %34

34:                                               ; preds = %33, %26
  %35 = load ptr, ptr %9, align 8, !tbaa !205
  %36 = load ptr, ptr %7, align 8, !tbaa !9
  %37 = call ptr @parse_object_or_die(ptr noundef %35, ptr noundef %36)
  store ptr %37, ptr %14, align 8, !tbaa !252
  %38 = load ptr, ptr %14, align 8, !tbaa !252
  %39 = load i32, ptr %38, align 4
  %40 = lshr i32 %39, 1
  %41 = and i32 %40, 7
  %42 = icmp ne i32 %41, 1
  br i1 %42, label %43, label %44

43:                                               ; preds = %34
  store i32 0, ptr %6, align 4
  store i32 1, ptr %15, align 4
  br label %64

44:                                               ; preds = %34
  %45 = load ptr, ptr %12, align 8, !tbaa !211
  %46 = load ptr, ptr %14, align 8, !tbaa !252
  call void @add_pending_object(ptr noundef %45, ptr noundef %46, ptr noundef @.str.65)
  %47 = load ptr, ptr %12, align 8, !tbaa !211
  %48 = getelementptr inbounds nuw %struct.rev_info, ptr %47, i32 0, i32 2
  %49 = load ptr, ptr %48, align 8, !tbaa !214
  %50 = load ptr, ptr %7, align 8, !tbaa !9
  %51 = call i32 @bitmap_is_preferred_refname(ptr noundef %49, ptr noundef %50)
  %52 = icmp ne i32 %51, 0
  br i1 %52, label %53, label %63

53:                                               ; preds = %44
  %54 = load ptr, ptr %14, align 8, !tbaa !252
  %55 = load i32, ptr %54, align 4
  %56 = lshr i32 %55, 4
  %57 = or i32 %56, 4194304
  %58 = load i32, ptr %54, align 4
  %59 = and i32 %57, 268435455
  %60 = shl i32 %59, 4
  %61 = and i32 %58, 15
  %62 = or i32 %61, %60
  store i32 %62, ptr %54, align 4
  br label %63

63:                                               ; preds = %53, %44
  store i32 0, ptr %6, align 4
  store i32 1, ptr %15, align 4
  br label %64

64:                                               ; preds = %63, %43, %24
  call void @llvm.lifetime.end.p0(i64 8, ptr %14) #11
  call void @llvm.lifetime.end.p0(i64 36, ptr %13) #11
  call void @llvm.lifetime.end.p0(i64 8, ptr %12) #11
  %65 = load i32, ptr %6, align 4
  ret i32 %65
}