; Function Attrs: nounwind uwtable
define internal noundef i32 @add_ref_to_pending(ptr noundef %0, ptr readnone captures(none) %1, ptr noundef %2, i32 noundef %3, ptr noundef %4) #0 {
  %6 = alloca %struct.object_id, align 4
  call void @llvm.lifetime.start.p0(i64 36, ptr nonnull %6) #19
  %7 = and i32 %3, 5
  %or.cond.not = icmp eq i32 %7, 5
  br i1 %or.cond.not, label %8, label %9

8:                                                ; preds = %5
  tail call void (ptr, ...) @warning(ptr noundef nonnull @.str.66, ptr noundef %0) #19
  br label %22

9:                                                ; preds = %5
  %10 = getelementptr inbounds nuw i8, ptr %4, i64 24
  %11 = load ptr, ptr %10, align 8, !tbaa !130
  %12 = call i32 @peel_iterated_oid(ptr noundef %11, ptr noundef %2, ptr noundef nonnull %6) #19
  %.not16 = icmp eq i32 %12, 0
  %spec.select = select i1 %.not16, ptr %6, ptr %2
  %13 = call ptr @parse_object_or_die(ptr noundef %spec.select, ptr noundef %0) #19
  %14 = load i32, ptr %13, align 4
  %15 = and i32 %14, 14
  %.not17 = icmp eq i32 %15, 2
  br i1 %.not17, label %16, label %22

16:                                               ; preds = %9
  call void @add_pending_object(ptr noundef nonnull %4, ptr noundef nonnull %13, ptr noundef nonnull @.str.65) #19
  %17 = load ptr, ptr %10, align 8, !tbaa !130
  %18 = call i32 @bitmap_is_preferred_refname(ptr noundef %17, ptr noundef %0) #19
  %.not18 = icmp eq i32 %18, 0
  br i1 %.not18, label %22, label %19

19:                                               ; preds = %16
  %20 = load i32, ptr %13, align 4
  %21 = or i32 %20, 67108864
  store i32 %21, ptr %13, align 4
  br label %22

22:                                               ; preds = %16, %19, %9, %8
  call void @llvm.lifetime.end.p0(i64 36, ptr nonnull %6) #19
  ret i32 0
}